target datalayout = "e-m:e-p270:32:32-p271:32:32-p272:64:64-i64:64-i128:128-f80:128-n8:16:32:64-S128"
target triple = "x86_64-pc-linux-gnu"

; Function Attrs: nounwind uwtable
define dso_local i32 @calc_shared_perm(i32 noundef %0) #0 {
  %2 = alloca i32, align 4
  %3 = alloca i32, align 4
  store i32 %0, ptr %2, align 4, !tbaa !4
  call void @llvm.lifetime.start.p0(i64 4, ptr %3) #12
  %4 = call i32 @get_shared_repository()
  %5 = icmp slt i32 %4, 0
  br i1 %5, label %6, label %9

6:                                                ; preds = %1
  %7 = call i32 @get_shared_repository()
  %8 = sub nsw i32 0, %7
  store i32 %8, ptr %3, align 4, !tbaa !4
  br label %11

9:                                                ; preds = %1
  %10 = call i32 @get_shared_repository()
  store i32 %10, ptr %3, align 4, !tbaa !4
  br label %11

11:                                               ; preds = %9, %6
  %12 = load i32, ptr %2, align 4, !tbaa !4
  %13 = and i32 %12, 128
  %14 = icmp ne i32 %13, 0
  br i1 %14, label %18, label %15

15:                                               ; preds = %11
  %16 = load i32, ptr %3, align 4, !tbaa !4
  %17 = and i32 %16, -147
  store i32 %17, ptr %3, align 4, !tbaa !4
  br label %18

18:                                               ; preds = %15, %11
  %19 = load i32, ptr %2, align 4, !tbaa !4
  %20 = and i32 %19, 64
  %21 = icmp ne i32 %20, 0
  br i1 %21, label %22, label %28

22:                                               ; preds = %18
  %23 = load i32, ptr %3, align 4, !tbaa !4
  %24 = and i32 %23, 292
  %25 = ashr i32 %24, 2
  %26 = load i32, ptr %3, align 4, !tbaa !4
  %27 = or i32 %26, %25
  store i32 %27, ptr %3, align 4, !tbaa !4
  br label %28

28:                                               ; preds = %22, %18
  %29 = call i32 @get_shared_repository()
  %30 = icmp slt i32 %29, 0
  br i1 %30, label %31, label %36

31:                                               ; preds = %28
  %32 = load i32, ptr %2, align 4, !tbaa !4
  %33 = and i32 %32, -512
  %34 = load i32, ptr %3, align 4, !tbaa !4
  %35 = or i32 %33, %34
  store i32 %35, ptr %2, align 4, !tbaa !4
  br label %40

36:                                               ; preds = %28
  %37 = load i32, ptr %3, align 4, !tbaa !4
  %38 = load i32, ptr %2, align 4, !tbaa !4
  %39 = or i32 %38, %37
  store i32 %39, ptr %2, align 4, !tbaa !4
  br label %40

40:                                               ; preds = %36, %31
  %41 = load i32, ptr %2, align 4, !tbaa !4
  call void @llvm.lifetime.end.p0(i64 4, ptr %3) #12
  ret i32 %41
}