; Function Attrs: nounwind uwtable
define dso_local i32 @calc_shared_perm(i32 noundef %0) local_unnamed_addr #3 {
  %2 = tail call i32 @get_shared_repository() #29
  %3 = icmp slt i32 %2, 0
  %4 = tail call i32 @get_shared_repository() #29
  %5 = sub nsw i32 0, %4
  %.0 = select i1 %3, i32 %5, i32 %4
  %6 = and i32 %0, 128
  %.not = icmp eq i32 %6, 0
  %7 = and i32 %.0, -147
  %spec.select = select i1 %.not, i32 %7, i32 %.0
  %8 = and i32 %0, 64
  %.not11 = icmp eq i32 %8, 0
  %9 = lshr i32 %spec.select, 2
  %10 = and i32 %9, 73
  %11 = select i1 %.not11, i32 0, i32 %10
  %12 = tail call i32 @get_shared_repository() #29
  %13 = icmp slt i32 %12, 0
  %14 = and i32 %0, -512
  %.pn = select i1 %13, i32 %14, i32 %0
  %15 = or i32 %.pn, %11
  %.010 = or i32 %15, %spec.select
  ret i32 %.010
}